---
triple:          'arm64-apple-darwin'
binary-path:     '/Users/alesya/projects/features/main2'
relocations:
  - { offsetInCU: 0x5C, offset: 0x5C, size: 0x8, addend: 0x0, symName: __ZNSt3__119piecewise_constructE, symObjAddr: 0x2FCE, symBinAddr: 0x100003D53, symSize: 0x0 }
  - { offsetInCU: 0x3697, offset: 0x3697, size: 0x8, addend: 0x0, symName: __ZNSt3__124__put_character_sequenceB8ue170006IcNS_11char_traitsIcEEEERNS_13basic_ostreamIT_T0_EES7_PKS4_m, symObjAddr: 0x488, symBinAddr: 0x1000011E8, symSize: 0x1EC }
  - { offsetInCU: 0x50F5, offset: 0x50F5, size: 0x8, addend: 0x0, symName: '__ZNSt3__110__function10__not_nullB8ue170006IZ14closureWrappervE3$_0EEbRKT_', symObjAddr: 0x1088, symBinAddr: 0x100001DE8, symSize: 0x18 }
  - { offsetInCU: 0x6872, offset: 0x6872, size: 0x8, addend: 0x0, symName: __ZNSt3__1lsB8ue170006INS_11char_traitsIcEEEERNS_13basic_ostreamIcT_EES6_PKc, symObjAddr: 0x2A8, symBinAddr: 0x100001008, symSize: 0x48 }
  - { offsetInCU: 0x68B8, offset: 0x68B8, size: 0x8, addend: 0x0, symName: __ZNSt3__14endlB8ue170006IcNS_11char_traitsIcEEEERNS_13basic_ostreamIT_T0_EES7_, symObjAddr: 0x348, symBinAddr: 0x1000010A8, symSize: 0x58 }
  - { offsetInCU: 0x68F8, offset: 0x68F8, size: 0x8, addend: 0x0, symName: __ZNSt3__19use_facetB8ue170006INS_5ctypeIcEEEERKT_RKNS_6localeE, symObjAddr: 0x424, symBinAddr: 0x100001184, symSize: 0x2C }
  - { offsetInCU: 0x6DC5, offset: 0x6DC5, size: 0x8, addend: 0x0, symName: __ZNSt3__116__pad_and_outputB8ue170006IcNS_11char_traitsIcEEEENS_19ostreambuf_iteratorIT_T0_EES6_PKS4_S8_S8_RNS_8ios_baseES4_, symObjAddr: 0x6C4, symBinAddr: 0x100001424, symSize: 0x240 }
  - { offsetInCU: 0x6E94, offset: 0x6E94, size: 0x8, addend: 0x0, symName: __ZNSt3__112__to_addressB8ue170006IcEEPT_S2_, symObjAddr: 0xC38, symBinAddr: 0x100001998, symSize: 0x14 }
  - { offsetInCU: 0x6EC9, offset: 0x6EC9, size: 0x8, addend: 0x0, symName: __ZNSt3__118__constexpr_strlenB8ue170006EPKc, symObjAddr: 0xEA0, symBinAddr: 0x100001C00, symSize: 0x24 }
  - { offsetInCU: 0x6FA6, offset: 0x6FA6, size: 0x8, addend: 0x0, symName: '__ZNSt3__116forward_as_tupleB8ue170006IJZ14closureWrappervE3$_0EEENS_5tupleIJDpOT_EEES5_', symObjAddr: 0x1600, symBinAddr: 0x100002360, symSize: 0x2C }
  - { offsetInCU: 0x6FDF, offset: 0x6FDF, size: 0x8, addend: 0x0, symName: '__ZNSt3__116forward_as_tupleB8ue170006IJNS_9allocatorIZ14closureWrappervE3$_0EEEEENS_5tupleIJDpOT_EEES7_', symObjAddr: 0x162C, symBinAddr: 0x10000238C, symSize: 0x2C }
  - { offsetInCU: 0x705C, offset: 0x705C, size: 0x8, addend: 0x0, symName: '__ZNSt3__13getB8ue170006ILm0EJOZ14closureWrappervE3$_0EEERNS_13tuple_elementIXT_ENS_5tupleIJDpT0_EEEE4typeERS7_', symObjAddr: 0x1944, symBinAddr: 0x1000026A4, symSize: 0x24 }
  - { offsetInCU: 0x709E, offset: 0x709E, size: 0x8, addend: 0x0, symName: '__ZNSt3__13getB8ue170006ILm0EJONS_9allocatorIZ14closureWrappervE3$_0EEEEERNS_13tuple_elementIXT_ENS_5tupleIJDpT0_EEEE4typeERS9_', symObjAddr: 0x1980, symBinAddr: 0x1000026E0, symSize: 0x24 }
  - { offsetInCU: 0x75C4, offset: 0x75C4, size: 0x8, addend: 0x0, symName: __ZNSt3__117__libcpp_allocateB8ue170006Emm, symObjAddr: 0x1C68, symBinAddr: 0x1000029C8, symSize: 0x60 }
  - { offsetInCU: 0x780D, offset: 0x780D, size: 0x8, addend: 0x0, symName: __ZNSt3__124__is_overaligned_for_newB8ue170006Em, symObjAddr: 0x1CE4, symBinAddr: 0x100002A44, symSize: 0x20 }
  - { offsetInCU: 0x783B, offset: 0x783B, size: 0x8, addend: 0x0, symName: __ZNSt3__121__libcpp_operator_newB8ue170006IJmSt11align_val_tEEEPvDpT_, symObjAddr: 0x1D04, symBinAddr: 0x100002A64, symSize: 0x2C }
  - { offsetInCU: 0x7888, offset: 0x7888, size: 0x8, addend: 0x0, symName: __ZNSt3__121__libcpp_operator_newB8ue170006IJmEEEPvDpT_, symObjAddr: 0x1D30, symBinAddr: 0x100002A90, symSize: 0x24 }
  - { offsetInCU: 0x78C2, offset: 0x78C2, size: 0x8, addend: 0x0, symName: '__ZNSt3__116forward_as_tupleB8ue170006IJRKZ14closureWrappervE3$_0EEENS_5tupleIJDpOT_EEES7_', symObjAddr: 0x2024, symBinAddr: 0x100002D84, symSize: 0x2C }
  - { offsetInCU: 0x7910, offset: 0x7910, size: 0x8, addend: 0x0, symName: '__ZNSt3__13getB8ue170006ILm0EJRKZ14closureWrappervE3$_0EEERNS_13tuple_elementIXT_ENS_5tupleIJDpT0_EEEE4typeERS8_', symObjAddr: 0x2214, symBinAddr: 0x100002F74, symSize: 0x24 }
  - { offsetInCU: 0x7952, offset: 0x7952, size: 0x8, addend: 0x0, symName: __ZNSt3__119__libcpp_deallocateB8ue170006EPvmm, symObjAddr: 0x2414, symBinAddr: 0x100003174, symSize: 0x60 }
  - { offsetInCU: 0x79B9, offset: 0x79B9, size: 0x8, addend: 0x0, symName: __ZNSt3__127__do_deallocate_handle_sizeB8ue170006IJSt11align_val_tEEEvPvmDpT_, symObjAddr: 0x2474, symBinAddr: 0x1000031D4, symSize: 0x30 }
  - { offsetInCU: 0x7A0D, offset: 0x7A0D, size: 0x8, addend: 0x0, symName: __ZNSt3__127__do_deallocate_handle_sizeB8ue170006IJEEEvPvmDpT_, symObjAddr: 0x24A4, symBinAddr: 0x100003204, symSize: 0x28 }
  - { offsetInCU: 0x7A4C, offset: 0x7A4C, size: 0x8, addend: 0x0, symName: __ZNSt3__124__libcpp_operator_deleteB8ue170006IJPvSt11align_val_tEEEvDpT_, symObjAddr: 0x24CC, symBinAddr: 0x10000322C, symSize: 0x2C }
  - { offsetInCU: 0x7A96, offset: 0x7A96, size: 0x8, addend: 0x0, symName: __ZNSt3__124__libcpp_operator_deleteB8ue170006IJPvEEEvDpT_, symObjAddr: 0x24F8, symBinAddr: 0x100003258, symSize: 0x24 }
  - { offsetInCU: 0x7ACC, offset: 0x7ACC, size: 0x8, addend: 0x0, symName: '__ZNSt3__116forward_as_tupleB8ue170006IJRKNS_9allocatorIZ14closureWrappervE3$_0EEEEENS_5tupleIJDpOT_EEES9_', symObjAddr: 0x2678, symBinAddr: 0x1000033D8, symSize: 0x2C }
  - { offsetInCU: 0x7B1A, offset: 0x7B1A, size: 0x8, addend: 0x0, symName: '__ZNSt3__13getB8ue170006ILm0EJRKNS_9allocatorIZ14closureWrappervE3$_0EEEEERNS_13tuple_elementIXT_ENS_5tupleIJDpT0_EEEE4typeERSA_', symObjAddr: 0x285C, symBinAddr: 0x1000035BC, symSize: 0x24 }
  - { offsetInCU: 0x7B8F, offset: 0x7B8F, size: 0x8, addend: 0x0, symName: '__ZNSt3__18__invokeB8ue170006IRZ14closureWrappervE3$_0JEEEDTclclsr3stdE7declvalIT_EEspclsr3stdE7declvalIT0_EEEEOS3_DpOS4_', symObjAddr: 0x2918, symBinAddr: 0x100003678, symSize: 0x24 }
  - { offsetInCU: 0x7BC8, offset: 0x7BC8, size: 0x8, addend: 0x0, symName: __ZNSt3__125__throw_bad_function_callB8ue170006Ev, symObjAddr: 0x2BE0, symBinAddr: 0x100003940, symSize: 0x38 }
  - { offsetInCU: 0x7ECD, offset: 0x7ECD, size: 0x8, addend: 0x0, symName: __ZSt28__throw_bad_array_new_lengthB8ue170006v, symObjAddr: 0x1C34, symBinAddr: 0x100002994, symSize: 0x34 }
  - { offsetInCU: 0x83F2, offset: 0x83F2, size: 0x8, addend: 0x0, symName: __Z14closureWrapperv, symObjAddr: 0x0, symBinAddr: 0x100000D60, symSize: 0x3C }
  - { offsetInCU: 0xAACF, offset: 0xAACF, size: 0x8, addend: 0x0, symName: '__ZNSt3__18functionIFvvEEC1IZ14closureWrappervE3$_0vEET_', symObjAddr: 0x3C, symBinAddr: 0x100000D9C, symSize: 0x34 }
  - { offsetInCU: 0xAB14, offset: 0xAB14, size: 0x8, addend: 0x0, symName: __Z11getConstantv, symObjAddr: 0x70, symBinAddr: 0x100000DD0, symSize: 0x18 }
  - { offsetInCU: 0xAB32, offset: 0xAB32, size: 0x8, addend: 0x0, symName: __Z8getColorv, symObjAddr: 0x88, symBinAddr: 0x100000DE8, symSize: 0x8 }
  - { offsetInCU: 0xAB50, offset: 0xAB50, size: 0x8, addend: 0x0, symName: _main, symObjAddr: 0x90, symBinAddr: 0x100000DF0, symSize: 0x198 }
  - { offsetInCU: 0xAC24, offset: 0xAC24, size: 0x8, addend: 0x0, symName: '__ZZ4mainENK3$_1clEv', symObjAddr: 0x228, symBinAddr: 0x100000F88, symSize: 0x5C }
  - { offsetInCU: 0xAC4E, offset: 0xAC4E, size: 0x8, addend: 0x0, symName: __ZNKSt3__18functionIFvvEEclEv, symObjAddr: 0x284, symBinAddr: 0x100000FE4, symSize: 0x24 }
  - { offsetInCU: 0xAC76, offset: 0xAC76, size: 0x8, addend: 0x0, symName: __ZNSt3__18functionIFvvEED1Ev, symObjAddr: 0x2F0, symBinAddr: 0x100001050, symSize: 0x2C }
  - { offsetInCU: 0xACA2, offset: 0xACA2, size: 0x8, addend: 0x0, symName: __ZNSt3__113basic_ostreamIcNS_11char_traitsIcEEElsB8ue170006EPFRS3_S4_E, symObjAddr: 0x31C, symBinAddr: 0x10000107C, symSize: 0x2C }
  - { offsetInCU: 0xACD6, offset: 0xACD6, size: 0x8, addend: 0x0, symName: __ZNKSt3__19basic_iosIcNS_11char_traitsIcEEE5widenB8ue170006Ec, symObjAddr: 0x3A0, symBinAddr: 0x100001100, symSize: 0x84 }
  - { offsetInCU: 0xAD4B, offset: 0xAD4B, size: 0x8, addend: 0x0, symName: __ZNKSt3__15ctypeIcE5widenB8ue170006Ec, symObjAddr: 0x450, symBinAddr: 0x1000011B0, symSize: 0x38 }
  - { offsetInCU: 0xAD80, offset: 0xAD80, size: 0x8, addend: 0x0, symName: __ZNSt3__111char_traitsIcE6lengthB8ue170006EPKc, symObjAddr: 0x674, symBinAddr: 0x1000013D4, symSize: 0x34 }
  - { offsetInCU: 0xADC6, offset: 0xADC6, size: 0x8, addend: 0x0, symName: __ZNKSt3__113basic_ostreamIcNS_11char_traitsIcEEE6sentrycvbB8ue170006Ev, symObjAddr: 0x6A8, symBinAddr: 0x100001408, symSize: 0x1C }
  - { offsetInCU: 0xADEC, offset: 0xADEC, size: 0x8, addend: 0x0, symName: __ZNSt3__119ostreambuf_iteratorIcNS_11char_traitsIcEEEC1B8ue170006ERNS_13basic_ostreamIcS2_EE, symObjAddr: 0x904, symBinAddr: 0x100001664, symSize: 0x34 }
  - { offsetInCU: 0xAE24, offset: 0xAE24, size: 0x8, addend: 0x0, symName: __ZNKSt3__18ios_base5flagsB8ue170006Ev, symObjAddr: 0x938, symBinAddr: 0x100001698, symSize: 0x18 }
  - { offsetInCU: 0xAE4C, offset: 0xAE4C, size: 0x8, addend: 0x0, symName: __ZNKSt3__19basic_iosIcNS_11char_traitsIcEEE4fillB8ue170006Ev, symObjAddr: 0x950, symBinAddr: 0x1000016B0, symSize: 0x64 }
  - { offsetInCU: 0xAE74, offset: 0xAE74, size: 0x8, addend: 0x0, symName: __ZNKSt3__119ostreambuf_iteratorIcNS_11char_traitsIcEEE6failedB8ue170006Ev, symObjAddr: 0x9B4, symBinAddr: 0x100001714, symSize: 0x24 }
  - { offsetInCU: 0xAE9A, offset: 0xAE9A, size: 0x8, addend: 0x0, symName: __ZNSt3__19basic_iosIcNS_11char_traitsIcEEE8setstateB8ue170006Ej, symObjAddr: 0x9D8, symBinAddr: 0x100001738, symSize: 0x2C }
  - { offsetInCU: 0xAECF, offset: 0xAECF, size: 0x8, addend: 0x0, symName: __ZNKSt3__18ios_base5widthB8ue170006Ev, symObjAddr: 0xA10, symBinAddr: 0x100001770, symSize: 0x18 }
  - { offsetInCU: 0xAEF7, offset: 0xAEF7, size: 0x8, addend: 0x0, symName: __ZNSt3__115basic_streambufIcNS_11char_traitsIcEEE5sputnB8ue170006EPKcl, symObjAddr: 0xA28, symBinAddr: 0x100001788, symSize: 0x3C }
  - { offsetInCU: 0xAF39, offset: 0xAF39, size: 0x8, addend: 0x0, symName: __ZNSt3__112basic_stringIcNS_11char_traitsIcEENS_9allocatorIcEEEC1B8ue170006Emc, symObjAddr: 0xA64, symBinAddr: 0x1000017C4, symSize: 0x3C }
  - { offsetInCU: 0xAF81, offset: 0xAF81, size: 0x8, addend: 0x0, symName: __ZNSt3__112basic_stringIcNS_11char_traitsIcEENS_9allocatorIcEEE4dataB8ue170006Ev, symObjAddr: 0xAA0, symBinAddr: 0x100001800, symSize: 0x28 }
  - { offsetInCU: 0xAFA7, offset: 0xAFA7, size: 0x8, addend: 0x0, symName: __ZNSt3__18ios_base5widthB8ue170006El, symObjAddr: 0xAC8, symBinAddr: 0x100001828, symSize: 0x2C }
  - { offsetInCU: 0xAFED, offset: 0xAFED, size: 0x8, addend: 0x0, symName: __ZNSt3__112basic_stringIcNS_11char_traitsIcEENS_9allocatorIcEEEC2B8ue170006Emc, symObjAddr: 0xAF4, symBinAddr: 0x100001854, symSize: 0x4C }
  - { offsetInCU: 0xB03B, offset: 0xB03B, size: 0x8, addend: 0x0, symName: __ZNSt3__117__compressed_pairINS_12basic_stringIcNS_11char_traitsIcEENS_9allocatorIcEEE5__repES5_EC1B8ue170006INS_18__default_init_tagESA_EEOT_OT0_, symObjAddr: 0xB40, symBinAddr: 0x1000018A0, symSize: 0x3C }
  - { offsetInCU: 0xB093, offset: 0xB093, size: 0x8, addend: 0x0, symName: __ZNSt3__117__compressed_pairINS_12basic_stringIcNS_11char_traitsIcEENS_9allocatorIcEEE5__repES5_EC2B8ue170006INS_18__default_init_tagESA_EEOT_OT0_, symObjAddr: 0xB7C, symBinAddr: 0x1000018DC, symSize: 0x3C }
  - { offsetInCU: 0xB0EB, offset: 0xB0EB, size: 0x8, addend: 0x0, symName: __ZNSt3__122__compressed_pair_elemINS_12basic_stringIcNS_11char_traitsIcEENS_9allocatorIcEEE5__repELi0ELb0EEC2B8ue170006ENS_18__default_init_tagE, symObjAddr: 0xBB8, symBinAddr: 0x100001918, symSize: 0x14 }
  - { offsetInCU: 0xB11F, offset: 0xB11F, size: 0x8, addend: 0x0, symName: __ZNSt3__122__compressed_pair_elemINS_9allocatorIcEELi1ELb1EEC2B8ue170006ENS_18__default_init_tagE, symObjAddr: 0xBCC, symBinAddr: 0x10000192C, symSize: 0x2C }
  - { offsetInCU: 0xB153, offset: 0xB153, size: 0x8, addend: 0x0, symName: __ZNSt3__19allocatorIcEC2B8ue170006Ev, symObjAddr: 0xBF8, symBinAddr: 0x100001958, symSize: 0x2C }
  - { offsetInCU: 0xB17D, offset: 0xB17D, size: 0x8, addend: 0x0, symName: __ZNSt3__116__non_trivial_ifILb1ENS_9allocatorIcEEEC2B8ue170006Ev, symObjAddr: 0xC24, symBinAddr: 0x100001984, symSize: 0x14 }
  - { offsetInCU: 0xB1A7, offset: 0xB1A7, size: 0x8, addend: 0x0, symName: __ZNSt3__112basic_stringIcNS_11char_traitsIcEENS_9allocatorIcEEE13__get_pointerB8ue170006Ev, symObjAddr: 0xC4C, symBinAddr: 0x1000019AC, symSize: 0x54 }
  - { offsetInCU: 0xB1CD, offset: 0xB1CD, size: 0x8, addend: 0x0, symName: __ZNKSt3__112basic_stringIcNS_11char_traitsIcEENS_9allocatorIcEEE9__is_longB8ue170006Ev, symObjAddr: 0xCA0, symBinAddr: 0x100001A00, symSize: 0x38 }
  - { offsetInCU: 0xB1F3, offset: 0xB1F3, size: 0x8, addend: 0x0, symName: __ZNSt3__112basic_stringIcNS_11char_traitsIcEENS_9allocatorIcEEE18__get_long_pointerB8ue170006Ev, symObjAddr: 0xCD8, symBinAddr: 0x100001A38, symSize: 0x28 }
  - { offsetInCU: 0xB219, offset: 0xB219, size: 0x8, addend: 0x0, symName: __ZNSt3__112basic_stringIcNS_11char_traitsIcEENS_9allocatorIcEEE19__get_short_pointerB8ue170006Ev, symObjAddr: 0xD00, symBinAddr: 0x100001A60, symSize: 0x28 }
  - { offsetInCU: 0xB23F, offset: 0xB23F, size: 0x8, addend: 0x0, symName: __ZNKSt3__117__compressed_pairINS_12basic_stringIcNS_11char_traitsIcEENS_9allocatorIcEEE5__repES5_E5firstB8ue170006Ev, symObjAddr: 0xD28, symBinAddr: 0x100001A88, symSize: 0x24 }
  - { offsetInCU: 0xB265, offset: 0xB265, size: 0x8, addend: 0x0, symName: __ZNKSt3__122__compressed_pair_elemINS_12basic_stringIcNS_11char_traitsIcEENS_9allocatorIcEEE5__repELi0ELb0EE5__getB8ue170006Ev, symObjAddr: 0xD4C, symBinAddr: 0x100001AAC, symSize: 0x14 }
  - { offsetInCU: 0xB28B, offset: 0xB28B, size: 0x8, addend: 0x0, symName: __ZNSt3__117__compressed_pairINS_12basic_stringIcNS_11char_traitsIcEENS_9allocatorIcEEE5__repES5_E5firstB8ue170006Ev, symObjAddr: 0xD60, symBinAddr: 0x100001AC0, symSize: 0x24 }
  - { offsetInCU: 0xB2B1, offset: 0xB2B1, size: 0x8, addend: 0x0, symName: __ZNSt3__122__compressed_pair_elemINS_12basic_stringIcNS_11char_traitsIcEENS_9allocatorIcEEE5__repELi0ELb0EE5__getB8ue170006Ev, symObjAddr: 0xD84, symBinAddr: 0x100001AE4, symSize: 0x14 }
  - { offsetInCU: 0xB2D7, offset: 0xB2D7, size: 0x8, addend: 0x0, symName: __ZNSt3__114pointer_traitsIPcE10pointer_toB8ue170006ERc, symObjAddr: 0xD98, symBinAddr: 0x100001AF8, symSize: 0x14 }
  - { offsetInCU: 0xB2FA, offset: 0xB2FA, size: 0x8, addend: 0x0, symName: __ZNSt3__119ostreambuf_iteratorIcNS_11char_traitsIcEEEC2B8ue170006ERNS_13basic_ostreamIcS2_EE, symObjAddr: 0xDAC, symBinAddr: 0x100001B0C, symSize: 0x54 }
  - { offsetInCU: 0xB332, offset: 0xB332, size: 0x8, addend: 0x0, symName: __ZNKSt3__19basic_iosIcNS_11char_traitsIcEEE5rdbufB8ue170006Ev, symObjAddr: 0xE00, symBinAddr: 0x100001B60, symSize: 0x24 }
  - { offsetInCU: 0xB35A, offset: 0xB35A, size: 0x8, addend: 0x0, symName: __ZNKSt3__18ios_base5rdbufB8ue170006Ev, symObjAddr: 0xE24, symBinAddr: 0x100001B84, symSize: 0x18 }
  - { offsetInCU: 0xB380, offset: 0xB380, size: 0x8, addend: 0x0, symName: __ZNSt3__111char_traitsIcE11eq_int_typeB8ue170006Eii, symObjAddr: 0xE3C, symBinAddr: 0x100001B9C, symSize: 0x28 }
  - { offsetInCU: 0xB3B3, offset: 0xB3B3, size: 0x8, addend: 0x0, symName: __ZNSt3__111char_traitsIcE3eofB8ue170006Ev, symObjAddr: 0xE64, symBinAddr: 0x100001BC4, symSize: 0x8 }
  - { offsetInCU: 0xB3C7, offset: 0xB3C7, size: 0x8, addend: 0x0, symName: __ZNSt3__18ios_base8setstateB8ue170006Ej, symObjAddr: 0xE6C, symBinAddr: 0x100001BCC, symSize: 0x34 }
  - { offsetInCU: 0xB3FE, offset: 0xB3FE, size: 0x8, addend: 0x0, symName: '__ZNSt3__18functionIFvvEEC2IZ14closureWrappervE3$_0vEET_', symObjAddr: 0xEC4, symBinAddr: 0x100001C24, symSize: 0x38 }
  - { offsetInCU: 0xB443, offset: 0xB443, size: 0x8, addend: 0x0, symName: '__ZNSt3__110__function12__value_funcIFvvEEC1B8ue170006IZ14closureWrappervE3$_0vEEOT_', symObjAddr: 0xEFC, symBinAddr: 0x100001C5C, symSize: 0x50 }
  - { offsetInCU: 0xB486, offset: 0xB486, size: 0x8, addend: 0x0, symName: '__ZNSt3__19allocatorIZ14closureWrappervE3$_0EC1B8ue170006Ev', symObjAddr: 0xF4C, symBinAddr: 0x100001CAC, symSize: 0x2C }
  - { offsetInCU: 0xB4B0, offset: 0xB4B0, size: 0x8, addend: 0x0, symName: '__ZNSt3__110__function12__value_funcIFvvEEC1B8ue170006IZ14closureWrappervE3$_0NS_9allocatorIS5_EEEEOT_RKT0_', symObjAddr: 0xF78, symBinAddr: 0x100001CD8, symSize: 0x3C }
  - { offsetInCU: 0xB50A, offset: 0xB50A, size: 0x8, addend: 0x0, symName: '__ZNSt3__19allocatorIZ14closureWrappervE3$_0EC2B8ue170006Ev', symObjAddr: 0xFB4, symBinAddr: 0x100001D14, symSize: 0x2C }
  - { offsetInCU: 0xB534, offset: 0xB534, size: 0x8, addend: 0x0, symName: '__ZNSt3__116__non_trivial_ifILb1ENS_9allocatorIZ14closureWrappervE3$_0EEEC2B8ue170006Ev', symObjAddr: 0xFE0, symBinAddr: 0x100001D40, symSize: 0x14 }
  - { offsetInCU: 0xB55E, offset: 0xB55E, size: 0x8, addend: 0x0, symName: '__ZNSt3__110__function12__value_funcIFvvEEC2B8ue170006IZ14closureWrappervE3$_0NS_9allocatorIS5_EEEEOT_RKT0_', symObjAddr: 0xFF4, symBinAddr: 0x100001D54, symSize: 0x94 }
  - { offsetInCU: 0xB5EE, offset: 0xB5EE, size: 0x8, addend: 0x0, symName: '__ZNSt3__19allocatorINS_10__function6__funcIZ14closureWrappervE3$_0NS0_IS3_EEFvvEEEEC1B8ue170006IS3_EERKNS0_IT_EE', symObjAddr: 0x10A0, symBinAddr: 0x100001E00, symSize: 0x34 }
  - { offsetInCU: 0xB636, offset: 0xB636, size: 0x8, addend: 0x0, symName: '__ZNSt3__19allocatorIZ14closureWrappervE3$_0EC1B8ue170006INS_10__function6__funcIS1_S2_FvvEEEEERKNS0_IT_EE', symObjAddr: 0x10D4, symBinAddr: 0x100001E34, symSize: 0x34 }
  - { offsetInCU: 0xB673, offset: 0xB673, size: 0x8, addend: 0x0, symName: '__ZNSt3__110__function6__funcIZ14closureWrappervE3$_0NS_9allocatorIS2_EEFvvEEC1B8ue170006EOS2_OS4_', symObjAddr: 0x1108, symBinAddr: 0x100001E68, symSize: 0x3C }
  - { offsetInCU: 0xB6BB, offset: 0xB6BB, size: 0x8, addend: 0x0, symName: '__ZNSt3__19allocatorINS_10__function6__funcIZ14closureWrappervE3$_0NS0_IS3_EEFvvEEEEC2B8ue170006IS3_EERKNS0_IT_EE', symObjAddr: 0x1144, symBinAddr: 0x100001EA4, symSize: 0x30 }
  - { offsetInCU: 0xB6F8, offset: 0xB6F8, size: 0x8, addend: 0x0, symName: '__ZNSt3__116__non_trivial_ifILb1ENS_9allocatorINS_10__function6__funcIZ14closureWrappervE3$_0NS1_IS4_EEFvvEEEEEEC2B8ue170006Ev', symObjAddr: 0x1174, symBinAddr: 0x100001ED4, symSize: 0x14 }
  - { offsetInCU: 0xB722, offset: 0xB722, size: 0x8, addend: 0x0, symName: '__ZNSt3__19allocatorIZ14closureWrappervE3$_0EC2B8ue170006INS_10__function6__funcIS1_S2_FvvEEEEERKNS0_IT_EE', symObjAddr: 0x1188, symBinAddr: 0x100001EE8, symSize: 0x30 }
  - { offsetInCU: 0xB75F, offset: 0xB75F, size: 0x8, addend: 0x0, symName: '__ZNSt3__110__function6__funcIZ14closureWrappervE3$_0NS_9allocatorIS2_EEFvvEEC2B8ue170006EOS2_OS4_', symObjAddr: 0x11B8, symBinAddr: 0x100001F18, symSize: 0x88 }
  - { offsetInCU: 0xB7A7, offset: 0xB7A7, size: 0x8, addend: 0x0, symName: __ZNSt3__110__function6__baseIFvvEEC2B8ue170006Ev, symObjAddr: 0x1240, symBinAddr: 0x100001FA0, symSize: 0x24 }
  - { offsetInCU: 0xB7D1, offset: 0xB7D1, size: 0x8, addend: 0x0, symName: '__ZNSt3__110__function12__alloc_funcIZ14closureWrappervE3$_0NS_9allocatorIS2_EEFvvEEC1B8ue170006EOS2_OS4_', symObjAddr: 0x1264, symBinAddr: 0x100001FC4, symSize: 0x3C }
  - { offsetInCU: 0xB817, offset: 0xB817, size: 0x8, addend: 0x0, symName: __ZNSt3__110__function6__baseIFvvEED2Ev, symObjAddr: 0x12A0, symBinAddr: 0x100002000, symSize: 0x14 }
  - { offsetInCU: 0xB841, offset: 0xB841, size: 0x8, addend: 0x0, symName: '__ZNSt3__110__function6__funcIZ14closureWrappervE3$_0NS_9allocatorIS2_EEFvvEED1Ev', symObjAddr: 0x12B4, symBinAddr: 0x100002014, symSize: 0x2C }
  - { offsetInCU: 0xB86E, offset: 0xB86E, size: 0x8, addend: 0x0, symName: '__ZNSt3__110__function6__funcIZ14closureWrappervE3$_0NS_9allocatorIS2_EEFvvEED0Ev', symObjAddr: 0x12E0, symBinAddr: 0x100002040, symSize: 0x30 }
  - { offsetInCU: 0xB89B, offset: 0xB89B, size: 0x8, addend: 0x0, symName: '__ZNKSt3__110__function6__funcIZ14closureWrappervE3$_0NS_9allocatorIS2_EEFvvEE7__cloneEv', symObjAddr: 0x1310, symBinAddr: 0x100002070, symSize: 0xFC }
  - { offsetInCU: 0xB8ED, offset: 0xB8ED, size: 0x8, addend: 0x0, symName: '__ZNKSt3__110__function6__funcIZ14closureWrappervE3$_0NS_9allocatorIS2_EEFvvEE7__cloneEPNS0_6__baseIS5_EE', symObjAddr: 0x140C, symBinAddr: 0x10000216C, symSize: 0x58 }
  - { offsetInCU: 0xB924, offset: 0xB924, size: 0x8, addend: 0x0, symName: '__ZNSt3__110__function6__funcIZ14closureWrappervE3$_0NS_9allocatorIS2_EEFvvEE7destroyEv', symObjAddr: 0x1464, symBinAddr: 0x1000021C4, symSize: 0x28 }
  - { offsetInCU: 0xB94C, offset: 0xB94C, size: 0x8, addend: 0x0, symName: '__ZNSt3__110__function6__funcIZ14closureWrappervE3$_0NS_9allocatorIS2_EEFvvEE18destroy_deallocateEv', symObjAddr: 0x148C, symBinAddr: 0x1000021EC, symSize: 0x58 }
  - { offsetInCU: 0xB98F, offset: 0xB98F, size: 0x8, addend: 0x0, symName: '__ZNSt3__110__function6__funcIZ14closureWrappervE3$_0NS_9allocatorIS2_EEFvvEEclEv', symObjAddr: 0x14E4, symBinAddr: 0x100002244, symSize: 0x28 }
  - { offsetInCU: 0xB9B7, offset: 0xB9B7, size: 0x8, addend: 0x0, symName: '__ZNKSt3__110__function6__funcIZ14closureWrappervE3$_0NS_9allocatorIS2_EEFvvEE6targetERKSt9type_info', symObjAddr: 0x150C, symBinAddr: 0x10000226C, symSize: 0x60 }
  - { offsetInCU: 0xB9EE, offset: 0xB9EE, size: 0x8, addend: 0x0, symName: '__ZNKSt3__110__function6__funcIZ14closureWrappervE3$_0NS_9allocatorIS2_EEFvvEE11target_typeEv', symObjAddr: 0x156C, symBinAddr: 0x1000022CC, symSize: 0x18 }
  - { offsetInCU: 0xBA16, offset: 0xBA16, size: 0x8, addend: 0x0, symName: __ZNSt3__110__function6__baseIFvvEED1Ev, symObjAddr: 0x1584, symBinAddr: 0x1000022E4, symSize: 0x14 }
  - { offsetInCU: 0xBA40, offset: 0xBA40, size: 0x8, addend: 0x0, symName: __ZNSt3__110__function6__baseIFvvEED0Ev, symObjAddr: 0x1598, symBinAddr: 0x1000022F8, symSize: 0xC }
  - { offsetInCU: 0xBA6A, offset: 0xBA6A, size: 0x8, addend: 0x0, symName: '__ZNSt3__110__function12__alloc_funcIZ14closureWrappervE3$_0NS_9allocatorIS2_EEFvvEEC2B8ue170006EOS2_OS4_', symObjAddr: 0x15A4, symBinAddr: 0x100002304, symSize: 0x5C }
  - { offsetInCU: 0xBAB0, offset: 0xBAB0, size: 0x8, addend: 0x0, symName: '__ZNSt3__117__compressed_pairIZ14closureWrappervE3$_0NS_9allocatorIS1_EEEC1B8ue170006IJOS1_EJOS3_EEENS_21piecewise_construct_tENS_5tupleIJDpT_EEENS9_IJDpT0_EEE', symObjAddr: 0x1658, symBinAddr: 0x1000023B8, symSize: 0x3C }
  - { offsetInCU: 0xBB1A, offset: 0xBB1A, size: 0x8, addend: 0x0, symName: '__ZNSt3__15tupleIJOZ14closureWrappervE3$_0EEC1B8ue170006IJS1_ELi0EEEDpOT_', symObjAddr: 0x1694, symBinAddr: 0x1000023F4, symSize: 0x34 }
  - { offsetInCU: 0xBB64, offset: 0xBB64, size: 0x8, addend: 0x0, symName: '__ZNSt3__15tupleIJOZ14closureWrappervE3$_0EEC2B8ue170006IJS1_ELi0EEEDpOT_', symObjAddr: 0x16C8, symBinAddr: 0x100002428, symSize: 0x34 }
  - { offsetInCU: 0xBBAE, offset: 0xBBAE, size: 0x8, addend: 0x0, symName: '__ZNSt3__112__tuple_implINS_15__tuple_indicesIJLm0EEEEJOZ14closureWrappervE3$_0EEC1B8ue170006IJLm0EEJS4_EJEJEJS3_EEENS1_IJXspT_EEEENS_13__tuple_typesIJDpT0_EEENS1_IJXspT1_EEEENS8_IJDpT2_EEEDpOT3_', symObjAddr: 0x16FC, symBinAddr: 0x10000245C, symSize: 0x34 }
  - { offsetInCU: 0xBC43, offset: 0xBC43, size: 0x8, addend: 0x0, symName: '__ZNSt3__112__tuple_implINS_15__tuple_indicesIJLm0EEEEJOZ14closureWrappervE3$_0EEC2B8ue170006IJLm0EEJS4_EJEJEJS3_EEENS1_IJXspT_EEEENS_13__tuple_typesIJDpT0_EEENS1_IJXspT1_EEEENS8_IJDpT2_EEEDpOT3_', symObjAddr: 0x1730, symBinAddr: 0x100002490, symSize: 0x34 }
  - { offsetInCU: 0xBCD8, offset: 0xBCD8, size: 0x8, addend: 0x0, symName: '__ZNSt3__112__tuple_leafILm0EOZ14closureWrappervE3$_0Lb0EEC2B8ue170006IS1_vEEOT_', symObjAddr: 0x1764, symBinAddr: 0x1000024C4, symSize: 0x20 }
  - { offsetInCU: 0xBD1B, offset: 0xBD1B, size: 0x8, addend: 0x0, symName: '__ZNSt3__15tupleIJONS_9allocatorIZ14closureWrappervE3$_0EEEEC1B8ue170006IJS3_ELi0EEEDpOT_', symObjAddr: 0x1784, symBinAddr: 0x1000024E4, symSize: 0x34 }
  - { offsetInCU: 0xBD65, offset: 0xBD65, size: 0x8, addend: 0x0, symName: '__ZNSt3__15tupleIJONS_9allocatorIZ14closureWrappervE3$_0EEEEC2B8ue170006IJS3_ELi0EEEDpOT_', symObjAddr: 0x17B8, symBinAddr: 0x100002518, symSize: 0x34 }
  - { offsetInCU: 0xBDAF, offset: 0xBDAF, size: 0x8, addend: 0x0, symName: '__ZNSt3__112__tuple_implINS_15__tuple_indicesIJLm0EEEEJONS_9allocatorIZ14closureWrappervE3$_0EEEEC1B8ue170006IJLm0EEJS6_EJEJEJS5_EEENS1_IJXspT_EEEENS_13__tuple_typesIJDpT0_EEENS1_IJXspT1_EEEENSA_IJDpT2_EEEDpOT3_', symObjAddr: 0x17EC, symBinAddr: 0x10000254C, symSize: 0x34 }
  - { offsetInCU: 0xBE44, offset: 0xBE44, size: 0x8, addend: 0x0, symName: '__ZNSt3__112__tuple_implINS_15__tuple_indicesIJLm0EEEEJONS_9allocatorIZ14closureWrappervE3$_0EEEEC2B8ue170006IJLm0EEJS6_EJEJEJS5_EEENS1_IJXspT_EEEENS_13__tuple_typesIJDpT0_EEENS1_IJXspT1_EEEENSA_IJDpT2_EEEDpOT3_', symObjAddr: 0x1820, symBinAddr: 0x100002580, symSize: 0x34 }
  - { offsetInCU: 0xBED9, offset: 0xBED9, size: 0x8, addend: 0x0, symName: '__ZNSt3__112__tuple_leafILm0EONS_9allocatorIZ14closureWrappervE3$_0EELb0EEC2B8ue170006IS3_vEEOT_', symObjAddr: 0x1854, symBinAddr: 0x1000025B4, symSize: 0x20 }
  - { offsetInCU: 0xBF1C, offset: 0xBF1C, size: 0x8, addend: 0x0, symName: '__ZNSt3__117__compressed_pairIZ14closureWrappervE3$_0NS_9allocatorIS1_EEEC2B8ue170006IJOS1_EJOS3_EEENS_21piecewise_construct_tENS_5tupleIJDpT_EEENS9_IJDpT0_EEE', symObjAddr: 0x1874, symBinAddr: 0x1000025D4, symSize: 0x54 }
  - { offsetInCU: 0xBF86, offset: 0xBF86, size: 0x8, addend: 0x0, symName: '__ZNSt3__122__compressed_pair_elemIZ14closureWrappervE3$_0Li0ELb0EEC2B8ue170006IJOS1_EJLm0EEEENS_21piecewise_construct_tENS_5tupleIJDpT_EEENS_15__tuple_indicesIJXspT0_EEEE', symObjAddr: 0x18C8, symBinAddr: 0x100002628, symSize: 0x44 }
  - { offsetInCU: 0xBFE9, offset: 0xBFE9, size: 0x8, addend: 0x0, symName: '__ZNSt3__122__compressed_pair_elemINS_9allocatorIZ14closureWrappervE3$_0EELi1ELb1EEC2B8ue170006IJOS3_EJLm0EEEENS_21piecewise_construct_tENS_5tupleIJDpT_EEENS_15__tuple_indicesIJXspT0_EEEE', symObjAddr: 0x190C, symBinAddr: 0x10000266C, symSize: 0x38 }
  - { offsetInCU: 0xC04C, offset: 0xC04C, size: 0x8, addend: 0x0, symName: '__ZNSt3__112__tuple_leafILm0EOZ14closureWrappervE3$_0Lb0EE3getB8ue170006Ev', symObjAddr: 0x1968, symBinAddr: 0x1000026C8, symSize: 0x18 }
  - { offsetInCU: 0xC072, offset: 0xC072, size: 0x8, addend: 0x0, symName: '__ZNSt3__112__tuple_leafILm0EONS_9allocatorIZ14closureWrappervE3$_0EELb0EE3getB8ue170006Ev', symObjAddr: 0x19A4, symBinAddr: 0x100002704, symSize: 0x18 }
  - { offsetInCU: 0xC098, offset: 0xC098, size: 0x8, addend: 0x0, symName: '__ZNSt3__110__function6__funcIZ14closureWrappervE3$_0NS_9allocatorIS2_EEFvvEED2Ev', symObjAddr: 0x19BC, symBinAddr: 0x10000271C, symSize: 0x2C }
  - { offsetInCU: 0xC0C5, offset: 0xC0C5, size: 0x8, addend: 0x0, symName: '__ZNKSt3__110__function12__alloc_funcIZ14closureWrappervE3$_0NS_9allocatorIS2_EEFvvEE15__get_allocatorB8ue170006Ev', symObjAddr: 0x19E8, symBinAddr: 0x100002748, symSize: 0x24 }
  - { offsetInCU: 0xC0EB, offset: 0xC0EB, size: 0x8, addend: 0x0, symName: '__ZNSt3__19allocatorINS_10__function6__funcIZ14closureWrappervE3$_0NS0_IS3_EEFvvEEEE8allocateB8ue170006Em', symObjAddr: 0x1A0C, symBinAddr: 0x10000276C, symSize: 0x58 }
  - { offsetInCU: 0xC131, offset: 0xC131, size: 0x8, addend: 0x0, symName: '__ZNSt3__122__allocator_destructorINS_9allocatorINS_10__function6__funcIZ14closureWrappervE3$_0NS1_IS4_EEFvvEEEEEEC1B8ue170006ERS8_m', symObjAddr: 0x1A64, symBinAddr: 0x1000027C4, symSize: 0x3C }
  - { offsetInCU: 0xC21E, offset: 0xC21E, size: 0x8, addend: 0x0, symName: '__ZNSt3__110unique_ptrINS_10__function6__funcIZ14closureWrappervE3$_0NS_9allocatorIS3_EEFvvEEENS_22__allocator_destructorINS4_IS7_EEEEEC1B8ue170006ILb1EvEEPS7_NS_16__dependent_typeINS_27__unique_ptr_deleter_sfinaeISA_EEXT_EE20__good_rval_ref_typeE', symObjAddr: 0x1AA0, symBinAddr: 0x100002800, symSize: 0x3C }
  - { offsetInCU: 0xC26F, offset: 0xC26F, size: 0x8, addend: 0x0, symName: '__ZNKSt3__110unique_ptrINS_10__function6__funcIZ14closureWrappervE3$_0NS_9allocatorIS3_EEFvvEEENS_22__allocator_destructorINS4_IS7_EEEEE3getB8ue170006Ev', symObjAddr: 0x1ADC, symBinAddr: 0x10000283C, symSize: 0x28 }
  - { offsetInCU: 0xC295, offset: 0xC295, size: 0x8, addend: 0x0, symName: '__ZNKSt3__110__function12__alloc_funcIZ14closureWrappervE3$_0NS_9allocatorIS2_EEFvvEE8__targetB8ue170006Ev', symObjAddr: 0x1B04, symBinAddr: 0x100002864, symSize: 0x24 }
  - { offsetInCU: 0xC2BB, offset: 0xC2BB, size: 0x8, addend: 0x0, symName: '__ZNSt3__110__function6__funcIZ14closureWrappervE3$_0NS_9allocatorIS2_EEFvvEEC1B8ue170006ERKS2_OS4_', symObjAddr: 0x1B28, symBinAddr: 0x100002888, symSize: 0x3C }
  - { offsetInCU: 0xC303, offset: 0xC303, size: 0x8, addend: 0x0, symName: '__ZNSt3__110unique_ptrINS_10__function6__funcIZ14closureWrappervE3$_0NS_9allocatorIS3_EEFvvEEENS_22__allocator_destructorINS4_IS7_EEEEE7releaseB8ue170006Ev', symObjAddr: 0x1B64, symBinAddr: 0x1000028C4, symSize: 0x44 }
  - { offsetInCU: 0xC338, offset: 0xC338, size: 0x8, addend: 0x0, symName: '__ZNSt3__110unique_ptrINS_10__function6__funcIZ14closureWrappervE3$_0NS_9allocatorIS3_EEFvvEEENS_22__allocator_destructorINS4_IS7_EEEEED1B8ue170006Ev', symObjAddr: 0x1BA8, symBinAddr: 0x100002908, symSize: 0x2C }
  - { offsetInCU: 0xC362, offset: 0xC362, size: 0x8, addend: 0x0, symName: '__ZNKSt3__117__compressed_pairIZ14closureWrappervE3$_0NS_9allocatorIS1_EEE6secondB8ue170006Ev', symObjAddr: 0x1BD4, symBinAddr: 0x100002934, symSize: 0x24 }
  - { offsetInCU: 0xC388, offset: 0xC388, size: 0x8, addend: 0x0, symName: '__ZNKSt3__122__compressed_pair_elemINS_9allocatorIZ14closureWrappervE3$_0EELi1ELb1EE5__getB8ue170006Ev', symObjAddr: 0x1BF8, symBinAddr: 0x100002958, symSize: 0x14 }
  - { offsetInCU: 0xC3B9, offset: 0xC3B9, size: 0x8, addend: 0x0, symName: '__ZNSt3__116allocator_traitsINS_9allocatorINS_10__function6__funcIZ14closureWrappervE3$_0NS1_IS4_EEFvvEEEEEE8max_sizeB8ue170006IS8_vvEEmRKS8_', symObjAddr: 0x1C0C, symBinAddr: 0x10000296C, symSize: 0x28 }
  - { offsetInCU: 0xC3E5, offset: 0xC3E5, size: 0x8, addend: 0x0, symName: __ZNSt3__114numeric_limitsImE3maxB8ue170006Ev, symObjAddr: 0x1CC8, symBinAddr: 0x100002A28, symSize: 0x14 }
  - { offsetInCU: 0xC3F9, offset: 0xC3F9, size: 0x8, addend: 0x0, symName: __ZNSt3__123__libcpp_numeric_limitsImLb1EE3maxB8ue170006Ev, symObjAddr: 0x1CDC, symBinAddr: 0x100002A3C, symSize: 0x8 }
  - { offsetInCU: 0xC40D, offset: 0xC40D, size: 0x8, addend: 0x0, symName: '__ZNSt3__122__allocator_destructorINS_9allocatorINS_10__function6__funcIZ14closureWrappervE3$_0NS1_IS4_EEFvvEEEEEEC2B8ue170006ERS8_m', symObjAddr: 0x1D54, symBinAddr: 0x100002AB4, symSize: 0x2C }
  - { offsetInCU: 0xC453, offset: 0xC453, size: 0x8, addend: 0x0, symName: '__ZNSt3__110unique_ptrINS_10__function6__funcIZ14closureWrappervE3$_0NS_9allocatorIS3_EEFvvEEENS_22__allocator_destructorINS4_IS7_EEEEEC2B8ue170006ILb1EvEEPS7_NS_16__dependent_typeINS_27__unique_ptr_deleter_sfinaeISA_EEXT_EE20__good_rval_ref_typeE', symObjAddr: 0x1D80, symBinAddr: 0x100002AE0, symSize: 0x48 }
  - { offsetInCU: 0xC4A4, offset: 0xC4A4, size: 0x8, addend: 0x0, symName: '__ZNSt3__117__compressed_pairIPNS_10__function6__funcIZ14closureWrappervE3$_0NS_9allocatorIS3_EEFvvEEENS_22__allocator_destructorINS4_IS7_EEEEEC1B8ue170006IRS8_SB_EEOT_OT0_', symObjAddr: 0x1DC8, symBinAddr: 0x100002B28, symSize: 0x3C }
  - { offsetInCU: 0xC4FC, offset: 0xC4FC, size: 0x8, addend: 0x0, symName: '__ZNSt3__117__compressed_pairIPNS_10__function6__funcIZ14closureWrappervE3$_0NS_9allocatorIS3_EEFvvEEENS_22__allocator_destructorINS4_IS7_EEEEEC2B8ue170006IRS8_SB_EEOT_OT0_', symObjAddr: 0x1E04, symBinAddr: 0x100002B64, symSize: 0x48 }
  - { offsetInCU: 0xC554, offset: 0xC554, size: 0x8, addend: 0x0, symName: '__ZNSt3__122__compressed_pair_elemIPNS_10__function6__funcIZ14closureWrappervE3$_0NS_9allocatorIS3_EEFvvEEELi0ELb0EEC2B8ue170006IRS8_vEEOT_', symObjAddr: 0x1E4C, symBinAddr: 0x100002BAC, symSize: 0x24 }
  - { offsetInCU: 0xC596, offset: 0xC596, size: 0x8, addend: 0x0, symName: '__ZNSt3__122__compressed_pair_elemINS_22__allocator_destructorINS_9allocatorINS_10__function6__funcIZ14closureWrappervE3$_0NS2_IS5_EEFvvEEEEEEELi1ELb0EEC2B8ue170006ISA_vEEOT_', symObjAddr: 0x1E70, symBinAddr: 0x100002BD0, symSize: 0x24 }
  - { offsetInCU: 0xC5D8, offset: 0xC5D8, size: 0x8, addend: 0x0, symName: '__ZNKSt3__117__compressed_pairIPNS_10__function6__funcIZ14closureWrappervE3$_0NS_9allocatorIS3_EEFvvEEENS_22__allocator_destructorINS4_IS7_EEEEE5firstB8ue170006Ev', symObjAddr: 0x1E94, symBinAddr: 0x100002BF4, symSize: 0x24 }
  - { offsetInCU: 0xC5FE, offset: 0xC5FE, size: 0x8, addend: 0x0, symName: '__ZNKSt3__122__compressed_pair_elemIPNS_10__function6__funcIZ14closureWrappervE3$_0NS_9allocatorIS3_EEFvvEEELi0ELb0EE5__getB8ue170006Ev', symObjAddr: 0x1EB8, symBinAddr: 0x100002C18, symSize: 0x14 }
  - { offsetInCU: 0xC624, offset: 0xC624, size: 0x8, addend: 0x0, symName: '__ZNKSt3__117__compressed_pairIZ14closureWrappervE3$_0NS_9allocatorIS1_EEE5firstB8ue170006Ev', symObjAddr: 0x1ECC, symBinAddr: 0x100002C2C, symSize: 0x24 }
  - { offsetInCU: 0xC64A, offset: 0xC64A, size: 0x8, addend: 0x0, symName: '__ZNKSt3__122__compressed_pair_elemIZ14closureWrappervE3$_0Li0ELb0EE5__getB8ue170006Ev', symObjAddr: 0x1EF0, symBinAddr: 0x100002C50, symSize: 0x14 }
  - { offsetInCU: 0xC670, offset: 0xC670, size: 0x8, addend: 0x0, symName: '__ZNSt3__110__function6__funcIZ14closureWrappervE3$_0NS_9allocatorIS2_EEFvvEEC2B8ue170006ERKS2_OS4_', symObjAddr: 0x1F04, symBinAddr: 0x100002C64, symSize: 0x88 }
  - { offsetInCU: 0xC6B8, offset: 0xC6B8, size: 0x8, addend: 0x0, symName: '__ZNSt3__110__function12__alloc_funcIZ14closureWrappervE3$_0NS_9allocatorIS2_EEFvvEEC1B8ue170006ERKS2_OS4_', symObjAddr: 0x1F8C, symBinAddr: 0x100002CEC, symSize: 0x3C }
  - { offsetInCU: 0xC6FE, offset: 0xC6FE, size: 0x8, addend: 0x0, symName: '__ZNSt3__110__function12__alloc_funcIZ14closureWrappervE3$_0NS_9allocatorIS2_EEFvvEEC2B8ue170006ERKS2_OS4_', symObjAddr: 0x1FC8, symBinAddr: 0x100002D28, symSize: 0x5C }
  - { offsetInCU: 0xC744, offset: 0xC744, size: 0x8, addend: 0x0, symName: '__ZNSt3__117__compressed_pairIZ14closureWrappervE3$_0NS_9allocatorIS1_EEEC1B8ue170006IJRKS1_EJOS3_EEENS_21piecewise_construct_tENS_5tupleIJDpT_EEENSA_IJDpT0_EEE', symObjAddr: 0x2050, symBinAddr: 0x100002DB0, symSize: 0x3C }
  - { offsetInCU: 0xC7AE, offset: 0xC7AE, size: 0x8, addend: 0x0, symName: '__ZNSt3__15tupleIJRKZ14closureWrappervE3$_0EEC1B8ue170006INS_4_AndELi0EEES3_', symObjAddr: 0x208C, symBinAddr: 0x100002DEC, symSize: 0x34 }
  - { offsetInCU: 0xC7F6, offset: 0xC7F6, size: 0x8, addend: 0x0, symName: '__ZNSt3__15tupleIJRKZ14closureWrappervE3$_0EEC2B8ue170006INS_4_AndELi0EEES3_', symObjAddr: 0x20C0, symBinAddr: 0x100002E20, symSize: 0x34 }
  - { offsetInCU: 0xC83E, offset: 0xC83E, size: 0x8, addend: 0x0, symName: '__ZNSt3__112__tuple_implINS_15__tuple_indicesIJLm0EEEEJRKZ14closureWrappervE3$_0EEC1B8ue170006IJLm0EEJS5_EJEJEJS5_EEENS1_IJXspT_EEEENS_13__tuple_typesIJDpT0_EEENS1_IJXspT1_EEEENS9_IJDpT2_EEEDpOT3_', symObjAddr: 0x20F4, symBinAddr: 0x100002E54, symSize: 0x34 }
  - { offsetInCU: 0xC8D3, offset: 0xC8D3, size: 0x8, addend: 0x0, symName: '__ZNSt3__112__tuple_implINS_15__tuple_indicesIJLm0EEEEJRKZ14closureWrappervE3$_0EEC2B8ue170006IJLm0EEJS5_EJEJEJS5_EEENS1_IJXspT_EEEENS_13__tuple_typesIJDpT0_EEENS1_IJXspT1_EEEENS9_IJDpT2_EEEDpOT3_', symObjAddr: 0x2128, symBinAddr: 0x100002E88, symSize: 0x34 }
  - { offsetInCU: 0xC968, offset: 0xC968, size: 0x8, addend: 0x0, symName: '__ZNSt3__112__tuple_leafILm0ERKZ14closureWrappervE3$_0Lb0EEC2B8ue170006IS3_vEEOT_', symObjAddr: 0x215C, symBinAddr: 0x100002EBC, symSize: 0x20 }
  - { offsetInCU: 0xC9AB, offset: 0xC9AB, size: 0x8, addend: 0x0, symName: '__ZNSt3__117__compressed_pairIZ14closureWrappervE3$_0NS_9allocatorIS1_EEEC2B8ue170006IJRKS1_EJOS3_EEENS_21piecewise_construct_tENS_5tupleIJDpT_EEENSA_IJDpT0_EEE', symObjAddr: 0x217C, symBinAddr: 0x100002EDC, symSize: 0x54 }
  - { offsetInCU: 0xCA15, offset: 0xCA15, size: 0x8, addend: 0x0, symName: '__ZNSt3__122__compressed_pair_elemIZ14closureWrappervE3$_0Li0ELb0EEC2B8ue170006IJRKS1_EJLm0EEEENS_21piecewise_construct_tENS_5tupleIJDpT_EEENS_15__tuple_indicesIJXspT0_EEEE', symObjAddr: 0x21D0, symBinAddr: 0x100002F30, symSize: 0x44 }
  - { offsetInCU: 0xCA78, offset: 0xCA78, size: 0x8, addend: 0x0, symName: '__ZNSt3__112__tuple_leafILm0ERKZ14closureWrappervE3$_0Lb0EE3getB8ue170006Ev', symObjAddr: 0x2238, symBinAddr: 0x100002F98, symSize: 0x18 }
  - { offsetInCU: 0xCA9E, offset: 0xCA9E, size: 0x8, addend: 0x0, symName: '__ZNSt3__117__compressed_pairIPNS_10__function6__funcIZ14closureWrappervE3$_0NS_9allocatorIS3_EEFvvEEENS_22__allocator_destructorINS4_IS7_EEEEE5firstB8ue170006Ev', symObjAddr: 0x2250, symBinAddr: 0x100002FB0, symSize: 0x24 }
  - { offsetInCU: 0xCAC4, offset: 0xCAC4, size: 0x8, addend: 0x0, symName: '__ZNSt3__122__compressed_pair_elemIPNS_10__function6__funcIZ14closureWrappervE3$_0NS_9allocatorIS3_EEFvvEEELi0ELb0EE5__getB8ue170006Ev', symObjAddr: 0x2274, symBinAddr: 0x100002FD4, symSize: 0x14 }
  - { offsetInCU: 0xCAEA, offset: 0xCAEA, size: 0x8, addend: 0x0, symName: '__ZNSt3__110unique_ptrINS_10__function6__funcIZ14closureWrappervE3$_0NS_9allocatorIS3_EEFvvEEENS_22__allocator_destructorINS4_IS7_EEEEED2B8ue170006Ev', symObjAddr: 0x2288, symBinAddr: 0x100002FE8, symSize: 0x30 }
  - { offsetInCU: 0xCB14, offset: 0xCB14, size: 0x8, addend: 0x0, symName: '__ZNSt3__110unique_ptrINS_10__function6__funcIZ14closureWrappervE3$_0NS_9allocatorIS3_EEFvvEEENS_22__allocator_destructorINS4_IS7_EEEEE5resetB8ue170006EPS7_', symObjAddr: 0x22B8, symBinAddr: 0x100003018, symSize: 0x78 }
  - { offsetInCU: 0xCB58, offset: 0xCB58, size: 0x8, addend: 0x0, symName: '__ZNSt3__117__compressed_pairIPNS_10__function6__funcIZ14closureWrappervE3$_0NS_9allocatorIS3_EEFvvEEENS_22__allocator_destructorINS4_IS7_EEEEE6secondB8ue170006Ev', symObjAddr: 0x2330, symBinAddr: 0x100003090, symSize: 0x28 }
  - { offsetInCU: 0xCB7E, offset: 0xCB7E, size: 0x8, addend: 0x0, symName: '__ZNSt3__122__allocator_destructorINS_9allocatorINS_10__function6__funcIZ14closureWrappervE3$_0NS1_IS4_EEFvvEEEEEEclB8ue170006EPS7_', symObjAddr: 0x2358, symBinAddr: 0x1000030B8, symSize: 0x34 }
  - { offsetInCU: 0xCBB2, offset: 0xCBB2, size: 0x8, addend: 0x0, symName: '__ZNSt3__122__compressed_pair_elemINS_22__allocator_destructorINS_9allocatorINS_10__function6__funcIZ14closureWrappervE3$_0NS2_IS5_EEFvvEEEEEEELi1ELb0EE5__getB8ue170006Ev', symObjAddr: 0x238C, symBinAddr: 0x1000030EC, symSize: 0x14 }
  - { offsetInCU: 0xCBD8, offset: 0xCBD8, size: 0x8, addend: 0x0, symName: '__ZNSt3__116allocator_traitsINS_9allocatorINS_10__function6__funcIZ14closureWrappervE3$_0NS1_IS4_EEFvvEEEEEE10deallocateB8ue170006ERS8_PS7_m', symObjAddr: 0x23A0, symBinAddr: 0x100003100, symSize: 0x34 }
  - { offsetInCU: 0xCC1A, offset: 0xCC1A, size: 0x8, addend: 0x0, symName: '__ZNSt3__19allocatorINS_10__function6__funcIZ14closureWrappervE3$_0NS0_IS3_EEFvvEEEE10deallocateB8ue170006EPS6_m', symObjAddr: 0x23D4, symBinAddr: 0x100003134, symSize: 0x40 }
  - { offsetInCU: 0xCC5C, offset: 0xCC5C, size: 0x8, addend: 0x0, symName: '__ZNSt3__110__function6__funcIZ14closureWrappervE3$_0NS_9allocatorIS2_EEFvvEEC1B8ue170006ERKS2_RKS4_', symObjAddr: 0x251C, symBinAddr: 0x10000327C, symSize: 0x3C }
  - { offsetInCU: 0xCCA4, offset: 0xCCA4, size: 0x8, addend: 0x0, symName: '__ZNSt3__110__function6__funcIZ14closureWrappervE3$_0NS_9allocatorIS2_EEFvvEEC2B8ue170006ERKS2_RKS4_', symObjAddr: 0x2558, symBinAddr: 0x1000032B8, symSize: 0x88 }
  - { offsetInCU: 0xCCEC, offset: 0xCCEC, size: 0x8, addend: 0x0, symName: '__ZNSt3__110__function12__alloc_funcIZ14closureWrappervE3$_0NS_9allocatorIS2_EEFvvEEC1B8ue170006ERKS2_RKS4_', symObjAddr: 0x25E0, symBinAddr: 0x100003340, symSize: 0x3C }
  - { offsetInCU: 0xCD32, offset: 0xCD32, size: 0x8, addend: 0x0, symName: '__ZNSt3__110__function12__alloc_funcIZ14closureWrappervE3$_0NS_9allocatorIS2_EEFvvEEC2B8ue170006ERKS2_RKS4_', symObjAddr: 0x261C, symBinAddr: 0x10000337C, symSize: 0x5C }
  - { offsetInCU: 0xCD78, offset: 0xCD78, size: 0x8, addend: 0x0, symName: '__ZNSt3__117__compressed_pairIZ14closureWrappervE3$_0NS_9allocatorIS1_EEEC1B8ue170006IJRKS1_EJRKS3_EEENS_21piecewise_construct_tENS_5tupleIJDpT_EEENSB_IJDpT0_EEE', symObjAddr: 0x26A4, symBinAddr: 0x100003404, symSize: 0x3C }
  - { offsetInCU: 0xCDE2, offset: 0xCDE2, size: 0x8, addend: 0x0, symName: '__ZNSt3__15tupleIJRKNS_9allocatorIZ14closureWrappervE3$_0EEEEC1B8ue170006INS_4_AndELi0EEES5_', symObjAddr: 0x26E0, symBinAddr: 0x100003440, symSize: 0x34 }
  - { offsetInCU: 0xCE2A, offset: 0xCE2A, size: 0x8, addend: 0x0, symName: '__ZNSt3__15tupleIJRKNS_9allocatorIZ14closureWrappervE3$_0EEEEC2B8ue170006INS_4_AndELi0EEES5_', symObjAddr: 0x2714, symBinAddr: 0x100003474, symSize: 0x34 }
  - { offsetInCU: 0xCE72, offset: 0xCE72, size: 0x8, addend: 0x0, symName: '__ZNSt3__112__tuple_implINS_15__tuple_indicesIJLm0EEEEJRKNS_9allocatorIZ14closureWrappervE3$_0EEEEC1B8ue170006IJLm0EEJS7_EJEJEJS7_EEENS1_IJXspT_EEEENS_13__tuple_typesIJDpT0_EEENS1_IJXspT1_EEEENSB_IJDpT2_EEEDpOT3_', symObjAddr: 0x2748, symBinAddr: 0x1000034A8, symSize: 0x34 }
  - { offsetInCU: 0xCF07, offset: 0xCF07, size: 0x8, addend: 0x0, symName: '__ZNSt3__112__tuple_implINS_15__tuple_indicesIJLm0EEEEJRKNS_9allocatorIZ14closureWrappervE3$_0EEEEC2B8ue170006IJLm0EEJS7_EJEJEJS7_EEENS1_IJXspT_EEEENS_13__tuple_typesIJDpT0_EEENS1_IJXspT1_EEEENSB_IJDpT2_EEEDpOT3_', symObjAddr: 0x277C, symBinAddr: 0x1000034DC, symSize: 0x34 }
  - { offsetInCU: 0xCF9C, offset: 0xCF9C, size: 0x8, addend: 0x0, symName: '__ZNSt3__112__tuple_leafILm0ERKNS_9allocatorIZ14closureWrappervE3$_0EELb0EEC2B8ue170006IS5_vEEOT_', symObjAddr: 0x27B0, symBinAddr: 0x100003510, symSize: 0x20 }
  - { offsetInCU: 0xCFDF, offset: 0xCFDF, size: 0x8, addend: 0x0, symName: '__ZNSt3__117__compressed_pairIZ14closureWrappervE3$_0NS_9allocatorIS1_EEEC2B8ue170006IJRKS1_EJRKS3_EEENS_21piecewise_construct_tENS_5tupleIJDpT_EEENSB_IJDpT0_EEE', symObjAddr: 0x27D0, symBinAddr: 0x100003530, symSize: 0x54 }
  - { offsetInCU: 0xD049, offset: 0xD049, size: 0x8, addend: 0x0, symName: '__ZNSt3__122__compressed_pair_elemINS_9allocatorIZ14closureWrappervE3$_0EELi1ELb1EEC2B8ue170006IJRKS3_EJLm0EEEENS_21piecewise_construct_tENS_5tupleIJDpT_EEENS_15__tuple_indicesIJXspT0_EEEE', symObjAddr: 0x2824, symBinAddr: 0x100003584, symSize: 0x38 }
  - { offsetInCU: 0xD0AC, offset: 0xD0AC, size: 0x8, addend: 0x0, symName: '__ZNSt3__112__tuple_leafILm0ERKNS_9allocatorIZ14closureWrappervE3$_0EELb0EE3getB8ue170006Ev', symObjAddr: 0x2880, symBinAddr: 0x1000035E0, symSize: 0x18 }
  - { offsetInCU: 0xD0D2, offset: 0xD0D2, size: 0x8, addend: 0x0, symName: '__ZNSt3__110__function12__alloc_funcIZ14closureWrappervE3$_0NS_9allocatorIS2_EEFvvEE7destroyB8ue170006Ev', symObjAddr: 0x2898, symBinAddr: 0x1000035F8, symSize: 0x10 }
  - { offsetInCU: 0xD0F8, offset: 0xD0F8, size: 0x8, addend: 0x0, symName: '__ZNSt3__110__function12__alloc_funcIZ14closureWrappervE3$_0NS_9allocatorIS2_EEFvvEEclB8ue170006Ev', symObjAddr: 0x28A8, symBinAddr: 0x100003608, symSize: 0x28 }
  - { offsetInCU: 0xD11E, offset: 0xD11E, size: 0x8, addend: 0x0, symName: '__ZNSt3__128__invoke_void_return_wrapperIvLb1EE6__callB8ue170006IJRZ14closureWrappervE3$_0EEEvDpOT_', symObjAddr: 0x28D0, symBinAddr: 0x100003630, symSize: 0x24 }
  - { offsetInCU: 0xD14D, offset: 0xD14D, size: 0x8, addend: 0x0, symName: '__ZNSt3__117__compressed_pairIZ14closureWrappervE3$_0NS_9allocatorIS1_EEE5firstB8ue170006Ev', symObjAddr: 0x28F4, symBinAddr: 0x100003654, symSize: 0x24 }
  - { offsetInCU: 0xD179, offset: 0xD179, size: 0x8, addend: 0x0, symName: '__ZZ14closureWrappervENK3$_0clEv', symObjAddr: 0x293C, symBinAddr: 0x10000369C, symSize: 0x5C }
  - { offsetInCU: 0xD1A3, offset: 0xD1A3, size: 0x8, addend: 0x0, symName: '__ZNSt3__122__compressed_pair_elemIZ14closureWrappervE3$_0Li0ELb0EE5__getB8ue170006Ev', symObjAddr: 0x2998, symBinAddr: 0x1000036F8, symSize: 0x14 }
  - { offsetInCU: 0xD1FF, offset: 0xD1FF, size: 0x8, addend: 0x0, symName: __ZNKSt9type_infoeqB8ue170006ERKS_, symObjAddr: 0x29AC, symBinAddr: 0x10000370C, symSize: 0xDC }
  - { offsetInCU: 0xD29D, offset: 0xD29D, size: 0x8, addend: 0x0, symName: __ZNSt27__type_info_implementations30__non_unique_arm_rtti_bit_impl21__is_type_name_uniqueB8ue170006Em, symObjAddr: 0x2A88, symBinAddr: 0x1000037E8, symSize: 0x20 }
  - { offsetInCU: 0xD2C1, offset: 0xD2C1, size: 0x8, addend: 0x0, symName: __ZNSt3__18functionIFvvEED2Ev, symObjAddr: 0x2AA8, symBinAddr: 0x100003808, symSize: 0x2C }
  - { offsetInCU: 0xD2ED, offset: 0xD2ED, size: 0x8, addend: 0x0, symName: __ZNSt3__110__function12__value_funcIFvvEED1B8ue170006Ev, symObjAddr: 0x2AD4, symBinAddr: 0x100003834, symSize: 0x2C }
  - { offsetInCU: 0xD317, offset: 0xD317, size: 0x8, addend: 0x0, symName: __ZNSt3__110__function12__value_funcIFvvEED2B8ue170006Ev, symObjAddr: 0x2B00, symBinAddr: 0x100003860, symSize: 0x90 }
  - { offsetInCU: 0xD341, offset: 0xD341, size: 0x8, addend: 0x0, symName: __ZNKSt3__110__function12__value_funcIFvvEEclB8ue170006Ev, symObjAddr: 0x2B90, symBinAddr: 0x1000038F0, symSize: 0x50 }
  - { offsetInCU: 0xD384, offset: 0xD384, size: 0x8, addend: 0x0, symName: __ZNSt3__117bad_function_callC1Ev, symObjAddr: 0x2C18, symBinAddr: 0x100003978, symSize: 0x2C }
  - { offsetInCU: 0xD3B0, offset: 0xD3B0, size: 0x8, addend: 0x0, symName: __ZNSt3__117bad_function_callD1Ev, symObjAddr: 0x2C44, symBinAddr: 0x1000039A4, symSize: 0x2C }
  - { offsetInCU: 0xD3DA, offset: 0xD3DA, size: 0x8, addend: 0x0, symName: __ZNSt3__117bad_function_callC2Ev, symObjAddr: 0x2C70, symBinAddr: 0x1000039D0, symSize: 0x44 }
  - { offsetInCU: 0xD406, offset: 0xD406, size: 0x8, addend: 0x0, symName: __ZNSt9exceptionC2B8ue170006Ev, symObjAddr: 0x2CB4, symBinAddr: 0x100003A14, symSize: 0x24 }
  - { offsetInCU: 0xD430, offset: 0xD430, size: 0x8, addend: 0x0, symName: __ZNSt3__117bad_function_callD0Ev, symObjAddr: 0x2CD8, symBinAddr: 0x100003A38, symSize: 0x30 }
  - { offsetInCU: 0xD45A, offset: 0xD45A, size: 0x8, addend: 0x0, symName: __ZNSt3__117bad_function_callD2Ev, symObjAddr: 0x2D08, symBinAddr: 0x100003A68, symSize: 0x2C }
...
